target datalayout = "e-m:e-p270:32:32-p271:32:32-p272:64:64-i64:64-i128:128-f80:128-n8:16:32:64-S128"
target triple = "x86_64-pc-linux-gnu"

%struct._GtkTreeIter = type { i32, ptr, ptr, ptr }
%struct.dt_history_copy_item_t = type { ptr, ptr, i32, i32, i32 }

; Function Attrs: nounwind uwtable
define internal void @_gui_hist_set_items(ptr noundef %0, i32 noundef %1) #0 {
  %3 = alloca ptr, align 8
  %4 = alloca i32, align 4
  %5 = alloca %struct._GtkTreeIter, align 8
  %6 = alloca ptr, align 8
  store ptr %0, ptr %3, align 8, !tbaa !20
  store i32 %1, ptr %4, align 4, !tbaa !22
  call void @llvm.lifetime.start.p0(i64 32, ptr %5) #8
  call void @llvm.lifetime.start.p0(i64 8, ptr %6) #8
  %7 = load ptr, ptr %3, align 8, !tbaa !20
  %8 = getelementptr inbounds nuw %struct.dt_history_copy_item_t, ptr %7, i32 0, i32 1
  %9 = load ptr, ptr %8, align 8, !tbaa !72
  %10 = call i64 @gtk_tree_view_get_type() #9
  %11 = call ptr @g_type_check_instance_cast(ptr noundef %9, i64 noundef %10)
  %12 = call ptr @gtk_tree_view_get_model(ptr noundef %11)
  store ptr %12, ptr %6, align 8, !tbaa !18
  %13 = load ptr, ptr %6, align 8, !tbaa !18
  %14 = call i32 @gtk_tree_model_get_iter_first(ptr noundef %13, ptr noundef %5)
  %15 = icmp ne i32 %14, 0
  br i1 %15, label %16, label %27

16:                                               ; preds = %2
  br label %17

17:                                               ; preds = %22, %16
  %18 = load ptr, ptr %6, align 8, !tbaa !18
  %19 = call i64 @gtk_list_store_get_type() #9
  %20 = call ptr @g_type_check_instance_cast(ptr noundef %18, i64 noundef %19)
  %21 = load i32, ptr %4, align 4, !tbaa !22
  call void (ptr, ptr, ...) @gtk_list_store_set(ptr noundef %20, ptr noundef %5, i32 noundef 0, i32 noundef %21, i32 noundef -1)
  br label %22

22:                                               ; preds = %17
  %23 = load ptr, ptr %6, align 8, !tbaa !18
  %24 = call i32 @gtk_tree_model_iter_next(ptr noundef %23, ptr noundef %5)
  %25 = icmp ne i32 %24, 0
  br i1 %25, label %17, label %26

26:                                               ; preds = %22
  br label %27

27:                                               ; preds = %26, %2
  call void @llvm.lifetime.end.p0(i64 8, ptr %6) #8
  call void @llvm.lifetime.end.p0(i64 32, ptr %5) #8
  ret void
}