; Function Attrs: nounwind uwtable
define internal fastcc void @_gui_hist_set_items(ptr %.8.val, i32 noundef range(i32 0, 2) %0) unnamed_addr #0 {
  %2 = alloca %struct._GtkTreeIter, align 8
  call void @llvm.lifetime.start.p0(i64 32, ptr nonnull %2) #10
  %3 = tail call i64 @gtk_tree_view_get_type() #9
  %4 = tail call ptr @g_type_check_instance_cast(ptr noundef %.8.val, i64 noundef %3) #10
  %5 = tail call ptr @gtk_tree_view_get_model(ptr noundef %4) #10
  %6 = call i32 @gtk_tree_model_get_iter_first(ptr noundef %5, ptr noundef nonnull %2) #10
  %.not = icmp eq i32 %6, 0
  br i1 %.not, label %.loopexit, label %.preheader

.preheader:                                       ; preds = %1
  %7 = tail call i64 @gtk_list_store_get_type() #9
  br label %8

8:                                                ; preds = %.preheader, %8
  %9 = call ptr @g_type_check_instance_cast(ptr noundef %5, i64 noundef %7) #10
  call void (ptr, ptr, ...) @gtk_list_store_set(ptr noundef %9, ptr noundef nonnull %2, i32 noundef 0, i32 noundef %0, i32 noundef -1) #10
  %10 = call i32 @gtk_tree_model_iter_next(ptr noundef %5, ptr noundef nonnull %2) #10
  %.not4 = icmp eq i32 %10, 0
  br i1 %.not4, label %.loopexit, label %8

.loopexit:                                        ; preds = %8, %1
  call void @llvm.lifetime.end.p0(i64 32, ptr nonnull %2) #10
  ret void
}